; Listing generated by Microsoft (R) Optimizing Compiler Version 16.00.40219.01 

	TITLE	C:\Users\Server\Desktop\NeuroSky\NeuroSky_Dll_Call\NeuroSky_Dll_Call\NeuroSky_Dll_Call.cpp
	.686P
	.XMM
	include listing.inc
	.model	flat

INCLUDELIB MSVCRTD
INCLUDELIB OLDNAMES

PUBLIC	?value@?$integral_constant@_N$0A@@tr1@std@@2_NB	; std::tr1::integral_constant<bool,0>::value
PUBLIC	?value@?$integral_constant@_N$00@tr1@std@@2_NB	; std::tr1::integral_constant<bool,1>::value
PUBLIC	?value@?$integral_constant@I$0A@@tr1@std@@2IB	; std::tr1::integral_constant<unsigned int,0>::value
PUBLIC	?_Rank@?$_Arithmetic_traits@_N@std@@2HB		; std::_Arithmetic_traits<bool>::_Rank
PUBLIC	?_Rank@?$_Arithmetic_traits@D@std@@2HB		; std::_Arithmetic_traits<char>::_Rank
PUBLIC	?_Rank@?$_Arithmetic_traits@C@std@@2HB		; std::_Arithmetic_traits<signed char>::_Rank
PUBLIC	?_Rank@?$_Arithmetic_traits@E@std@@2HB		; std::_Arithmetic_traits<unsigned char>::_Rank
PUBLIC	?_Rank@?$_Arithmetic_traits@F@std@@2HB		; std::_Arithmetic_traits<short>::_Rank
PUBLIC	?_Rank@?$_Arithmetic_traits@G@std@@2HB		; std::_Arithmetic_traits<unsigned short>::_Rank
PUBLIC	?_Rank@?$_Arithmetic_traits@H@std@@2HB		; std::_Arithmetic_traits<int>::_Rank
PUBLIC	?_Rank@?$_Arithmetic_traits@I@std@@2HB		; std::_Arithmetic_traits<unsigned int>::_Rank
PUBLIC	?_Rank@?$_Arithmetic_traits@J@std@@2HB		; std::_Arithmetic_traits<long>::_Rank
PUBLIC	?_Rank@?$_Arithmetic_traits@K@std@@2HB		; std::_Arithmetic_traits<unsigned long>::_Rank
PUBLIC	?_Rank@?$_Arithmetic_traits@_J@std@@2HB		; std::_Arithmetic_traits<__int64>::_Rank
PUBLIC	?_Rank@?$_Arithmetic_traits@_K@std@@2HB		; std::_Arithmetic_traits<unsigned __int64>::_Rank
PUBLIC	?_Rank@?$_Arithmetic_traits@M@std@@2HB		; std::_Arithmetic_traits<float>::_Rank
PUBLIC	?_Rank@?$_Arithmetic_traits@N@std@@2HB		; std::_Arithmetic_traits<double>::_Rank
PUBLIC	?_Rank@?$_Arithmetic_traits@O@std@@2HB		; std::_Arithmetic_traits<long double>::_Rank
PUBLIC	?collate@?$_Locbase@H@std@@2HB			; std::_Locbase<int>::collate
PUBLIC	?ctype@?$_Locbase@H@std@@2HB			; std::_Locbase<int>::ctype
PUBLIC	?monetary@?$_Locbase@H@std@@2HB			; std::_Locbase<int>::monetary
PUBLIC	?numeric@?$_Locbase@H@std@@2HB			; std::_Locbase<int>::numeric
PUBLIC	?time@?$_Locbase@H@std@@2HB			; std::_Locbase<int>::time
PUBLIC	?messages@?$_Locbase@H@std@@2HB			; std::_Locbase<int>::messages
PUBLIC	?all@?$_Locbase@H@std@@2HB			; std::_Locbase<int>::all
PUBLIC	?none@?$_Locbase@H@std@@2HB			; std::_Locbase<int>::none
PUBLIC	?skipws@?$_Iosb@H@std@@2W4_Fmtflags@12@B	; std::_Iosb<int>::skipws
PUBLIC	?unitbuf@?$_Iosb@H@std@@2W4_Fmtflags@12@B	; std::_Iosb<int>::unitbuf
PUBLIC	?uppercase@?$_Iosb@H@std@@2W4_Fmtflags@12@B	; std::_Iosb<int>::uppercase
PUBLIC	?showbase@?$_Iosb@H@std@@2W4_Fmtflags@12@B	; std::_Iosb<int>::showbase
PUBLIC	?showpoint@?$_Iosb@H@std@@2W4_Fmtflags@12@B	; std::_Iosb<int>::showpoint
PUBLIC	?showpos@?$_Iosb@H@std@@2W4_Fmtflags@12@B	; std::_Iosb<int>::showpos
PUBLIC	?left@?$_Iosb@H@std@@2W4_Fmtflags@12@B		; std::_Iosb<int>::left
PUBLIC	?right@?$_Iosb@H@std@@2W4_Fmtflags@12@B		; std::_Iosb<int>::right
PUBLIC	?internal@?$_Iosb@H@std@@2W4_Fmtflags@12@B	; std::_Iosb<int>::internal
PUBLIC	?dec@?$_Iosb@H@std@@2W4_Fmtflags@12@B		; std::_Iosb<int>::dec
PUBLIC	?oct@?$_Iosb@H@std@@2W4_Fmtflags@12@B		; std::_Iosb<int>::oct
PUBLIC	?hex@?$_Iosb@H@std@@2W4_Fmtflags@12@B		; std::_Iosb<int>::hex
PUBLIC	?scientific@?$_Iosb@H@std@@2W4_Fmtflags@12@B	; std::_Iosb<int>::scientific
PUBLIC	?fixed@?$_Iosb@H@std@@2W4_Fmtflags@12@B		; std::_Iosb<int>::fixed
PUBLIC	?hexfloat@?$_Iosb@H@std@@2W4_Fmtflags@12@B	; std::_Iosb<int>::hexfloat
PUBLIC	?boolalpha@?$_Iosb@H@std@@2W4_Fmtflags@12@B	; std::_Iosb<int>::boolalpha
PUBLIC	?_Stdio@?$_Iosb@H@std@@2W4_Fmtflags@12@B	; std::_Iosb<int>::_Stdio
PUBLIC	?adjustfield@?$_Iosb@H@std@@2W4_Fmtflags@12@B	; std::_Iosb<int>::adjustfield
PUBLIC	?basefield@?$_Iosb@H@std@@2W4_Fmtflags@12@B	; std::_Iosb<int>::basefield
PUBLIC	?floatfield@?$_Iosb@H@std@@2W4_Fmtflags@12@B	; std::_Iosb<int>::floatfield
PUBLIC	?goodbit@?$_Iosb@H@std@@2W4_Iostate@12@B	; std::_Iosb<int>::goodbit
PUBLIC	?eofbit@?$_Iosb@H@std@@2W4_Iostate@12@B		; std::_Iosb<int>::eofbit
PUBLIC	?failbit@?$_Iosb@H@std@@2W4_Iostate@12@B	; std::_Iosb<int>::failbit
PUBLIC	?badbit@?$_Iosb@H@std@@2W4_Iostate@12@B		; std::_Iosb<int>::badbit
PUBLIC	?_Hardfail@?$_Iosb@H@std@@2W4_Iostate@12@B	; std::_Iosb<int>::_Hardfail
PUBLIC	?in@?$_Iosb@H@std@@2W4_Openmode@12@B		; std::_Iosb<int>::in
PUBLIC	?out@?$_Iosb@H@std@@2W4_Openmode@12@B		; std::_Iosb<int>::out
PUBLIC	?ate@?$_Iosb@H@std@@2W4_Openmode@12@B		; std::_Iosb<int>::ate
PUBLIC	?app@?$_Iosb@H@std@@2W4_Openmode@12@B		; std::_Iosb<int>::app
PUBLIC	?trunc@?$_Iosb@H@std@@2W4_Openmode@12@B		; std::_Iosb<int>::trunc
PUBLIC	?_Nocreate@?$_Iosb@H@std@@2W4_Openmode@12@B	; std::_Iosb<int>::_Nocreate
PUBLIC	?_Noreplace@?$_Iosb@H@std@@2W4_Openmode@12@B	; std::_Iosb<int>::_Noreplace
PUBLIC	?binary@?$_Iosb@H@std@@2W4_Openmode@12@B	; std::_Iosb<int>::binary
PUBLIC	?beg@?$_Iosb@H@std@@2W4_Seekdir@12@B		; std::_Iosb<int>::beg
PUBLIC	?cur@?$_Iosb@H@std@@2W4_Seekdir@12@B		; std::_Iosb<int>::cur
PUBLIC	?end@?$_Iosb@H@std@@2W4_Seekdir@12@B		; std::_Iosb<int>::end
;	COMDAT ?end@?$_Iosb@H@std@@2W4_Seekdir@12@B
CONST	SEGMENT
?end@?$_Iosb@H@std@@2W4_Seekdir@12@B DD 02H		; std::_Iosb<int>::end
CONST	ENDS
;	COMDAT ?cur@?$_Iosb@H@std@@2W4_Seekdir@12@B
CONST	SEGMENT
?cur@?$_Iosb@H@std@@2W4_Seekdir@12@B DD 01H		; std::_Iosb<int>::cur
CONST	ENDS
;	COMDAT ?beg@?$_Iosb@H@std@@2W4_Seekdir@12@B
CONST	SEGMENT
?beg@?$_Iosb@H@std@@2W4_Seekdir@12@B DD 00H		; std::_Iosb<int>::beg
CONST	ENDS
;	COMDAT ?binary@?$_Iosb@H@std@@2W4_Openmode@12@B
CONST	SEGMENT
?binary@?$_Iosb@H@std@@2W4_Openmode@12@B DD 020H	; std::_Iosb<int>::binary
CONST	ENDS
;	COMDAT ?_Noreplace@?$_Iosb@H@std@@2W4_Openmode@12@B
CONST	SEGMENT
?_Noreplace@?$_Iosb@H@std@@2W4_Openmode@12@B DD 080H	; std::_Iosb<int>::_Noreplace
CONST	ENDS
;	COMDAT ?_Nocreate@?$_Iosb@H@std@@2W4_Openmode@12@B
CONST	SEGMENT
?_Nocreate@?$_Iosb@H@std@@2W4_Openmode@12@B DD 040H	; std::_Iosb<int>::_Nocreate
CONST	ENDS
;	COMDAT ?trunc@?$_Iosb@H@std@@2W4_Openmode@12@B
CONST	SEGMENT
?trunc@?$_Iosb@H@std@@2W4_Openmode@12@B DD 010H		; std::_Iosb<int>::trunc
CONST	ENDS
;	COMDAT ?app@?$_Iosb@H@std@@2W4_Openmode@12@B
CONST	SEGMENT
?app@?$_Iosb@H@std@@2W4_Openmode@12@B DD 08H		; std::_Iosb<int>::app
CONST	ENDS
;	COMDAT ?ate@?$_Iosb@H@std@@2W4_Openmode@12@B
CONST	SEGMENT
?ate@?$_Iosb@H@std@@2W4_Openmode@12@B DD 04H		; std::_Iosb<int>::ate
CONST	ENDS
;	COMDAT ?out@?$_Iosb@H@std@@2W4_Openmode@12@B
CONST	SEGMENT
?out@?$_Iosb@H@std@@2W4_Openmode@12@B DD 02H		; std::_Iosb<int>::out
CONST	ENDS
;	COMDAT ?in@?$_Iosb@H@std@@2W4_Openmode@12@B
CONST	SEGMENT
?in@?$_Iosb@H@std@@2W4_Openmode@12@B DD 01H		; std::_Iosb<int>::in
CONST	ENDS
;	COMDAT ?_Hardfail@?$_Iosb@H@std@@2W4_Iostate@12@B
CONST	SEGMENT
?_Hardfail@?$_Iosb@H@std@@2W4_Iostate@12@B DD 010H	; std::_Iosb<int>::_Hardfail
CONST	ENDS
;	COMDAT ?badbit@?$_Iosb@H@std@@2W4_Iostate@12@B
CONST	SEGMENT
?badbit@?$_Iosb@H@std@@2W4_Iostate@12@B DD 04H		; std::_Iosb<int>::badbit
CONST	ENDS
;	COMDAT ?failbit@?$_Iosb@H@std@@2W4_Iostate@12@B
CONST	SEGMENT
?failbit@?$_Iosb@H@std@@2W4_Iostate@12@B DD 02H		; std::_Iosb<int>::failbit
CONST	ENDS
;	COMDAT ?eofbit@?$_Iosb@H@std@@2W4_Iostate@12@B
CONST	SEGMENT
?eofbit@?$_Iosb@H@std@@2W4_Iostate@12@B DD 01H		; std::_Iosb<int>::eofbit
CONST	ENDS
;	COMDAT ?goodbit@?$_Iosb@H@std@@2W4_Iostate@12@B
CONST	SEGMENT
?goodbit@?$_Iosb@H@std@@2W4_Iostate@12@B DD 00H		; std::_Iosb<int>::goodbit
CONST	ENDS
;	COMDAT ?floatfield@?$_Iosb@H@std@@2W4_Fmtflags@12@B
CONST	SEGMENT
?floatfield@?$_Iosb@H@std@@2W4_Fmtflags@12@B DD 03000H	; std::_Iosb<int>::floatfield
CONST	ENDS
;	COMDAT ?basefield@?$_Iosb@H@std@@2W4_Fmtflags@12@B
CONST	SEGMENT
?basefield@?$_Iosb@H@std@@2W4_Fmtflags@12@B DD 0e00H	; std::_Iosb<int>::basefield
CONST	ENDS
;	COMDAT ?adjustfield@?$_Iosb@H@std@@2W4_Fmtflags@12@B
CONST	SEGMENT
?adjustfield@?$_Iosb@H@std@@2W4_Fmtflags@12@B DD 01c0H	; std::_Iosb<int>::adjustfield
CONST	ENDS
;	COMDAT ?_Stdio@?$_Iosb@H@std@@2W4_Fmtflags@12@B
CONST	SEGMENT
?_Stdio@?$_Iosb@H@std@@2W4_Fmtflags@12@B DD 08000H	; std::_Iosb<int>::_Stdio
CONST	ENDS
;	COMDAT ?boolalpha@?$_Iosb@H@std@@2W4_Fmtflags@12@B
CONST	SEGMENT
?boolalpha@?$_Iosb@H@std@@2W4_Fmtflags@12@B DD 04000H	; std::_Iosb<int>::boolalpha
CONST	ENDS
;	COMDAT ?hexfloat@?$_Iosb@H@std@@2W4_Fmtflags@12@B
CONST	SEGMENT
?hexfloat@?$_Iosb@H@std@@2W4_Fmtflags@12@B DD 03000H	; std::_Iosb<int>::hexfloat
CONST	ENDS
;	COMDAT ?fixed@?$_Iosb@H@std@@2W4_Fmtflags@12@B
CONST	SEGMENT
?fixed@?$_Iosb@H@std@@2W4_Fmtflags@12@B DD 02000H	; std::_Iosb<int>::fixed
CONST	ENDS
;	COMDAT ?scientific@?$_Iosb@H@std@@2W4_Fmtflags@12@B
CONST	SEGMENT
?scientific@?$_Iosb@H@std@@2W4_Fmtflags@12@B DD 01000H	; std::_Iosb<int>::scientific
CONST	ENDS
;	COMDAT ?hex@?$_Iosb@H@std@@2W4_Fmtflags@12@B
CONST	SEGMENT
?hex@?$_Iosb@H@std@@2W4_Fmtflags@12@B DD 0800H		; std::_Iosb<int>::hex
CONST	ENDS
;	COMDAT ?oct@?$_Iosb@H@std@@2W4_Fmtflags@12@B
CONST	SEGMENT
?oct@?$_Iosb@H@std@@2W4_Fmtflags@12@B DD 0400H		; std::_Iosb<int>::oct
CONST	ENDS
;	COMDAT ?dec@?$_Iosb@H@std@@2W4_Fmtflags@12@B
CONST	SEGMENT
?dec@?$_Iosb@H@std@@2W4_Fmtflags@12@B DD 0200H		; std::_Iosb<int>::dec
CONST	ENDS
;	COMDAT ?internal@?$_Iosb@H@std@@2W4_Fmtflags@12@B
CONST	SEGMENT
?internal@?$_Iosb@H@std@@2W4_Fmtflags@12@B DD 0100H	; std::_Iosb<int>::internal
CONST	ENDS
;	COMDAT ?right@?$_Iosb@H@std@@2W4_Fmtflags@12@B
CONST	SEGMENT
?right@?$_Iosb@H@std@@2W4_Fmtflags@12@B DD 080H		; std::_Iosb<int>::right
CONST	ENDS
;	COMDAT ?left@?$_Iosb@H@std@@2W4_Fmtflags@12@B
CONST	SEGMENT
?left@?$_Iosb@H@std@@2W4_Fmtflags@12@B DD 040H		; std::_Iosb<int>::left
CONST	ENDS
;	COMDAT ?showpos@?$_Iosb@H@std@@2W4_Fmtflags@12@B
CONST	SEGMENT
?showpos@?$_Iosb@H@std@@2W4_Fmtflags@12@B DD 020H	; std::_Iosb<int>::showpos
CONST	ENDS
;	COMDAT ?showpoint@?$_Iosb@H@std@@2W4_Fmtflags@12@B
CONST	SEGMENT
?showpoint@?$_Iosb@H@std@@2W4_Fmtflags@12@B DD 010H	; std::_Iosb<int>::showpoint
CONST	ENDS
;	COMDAT ?showbase@?$_Iosb@H@std@@2W4_Fmtflags@12@B
CONST	SEGMENT
?showbase@?$_Iosb@H@std@@2W4_Fmtflags@12@B DD 08H	; std::_Iosb<int>::showbase
CONST	ENDS
;	COMDAT ?uppercase@?$_Iosb@H@std@@2W4_Fmtflags@12@B
CONST	SEGMENT
?uppercase@?$_Iosb@H@std@@2W4_Fmtflags@12@B DD 04H	; std::_Iosb<int>::uppercase
CONST	ENDS
;	COMDAT ?unitbuf@?$_Iosb@H@std@@2W4_Fmtflags@12@B
CONST	SEGMENT
?unitbuf@?$_Iosb@H@std@@2W4_Fmtflags@12@B DD 02H	; std::_Iosb<int>::unitbuf
CONST	ENDS
;	COMDAT ?skipws@?$_Iosb@H@std@@2W4_Fmtflags@12@B
CONST	SEGMENT
?skipws@?$_Iosb@H@std@@2W4_Fmtflags@12@B DD 01H		; std::_Iosb<int>::skipws
CONST	ENDS
;	COMDAT ?none@?$_Locbase@H@std@@2HB
CONST	SEGMENT
?none@?$_Locbase@H@std@@2HB DD 00H			; std::_Locbase<int>::none
CONST	ENDS
;	COMDAT ?all@?$_Locbase@H@std@@2HB
CONST	SEGMENT
?all@?$_Locbase@H@std@@2HB DD 03fH			; std::_Locbase<int>::all
CONST	ENDS
;	COMDAT ?messages@?$_Locbase@H@std@@2HB
CONST	SEGMENT
?messages@?$_Locbase@H@std@@2HB DD 020H			; std::_Locbase<int>::messages
CONST	ENDS
;	COMDAT ?time@?$_Locbase@H@std@@2HB
CONST	SEGMENT
?time@?$_Locbase@H@std@@2HB DD 010H			; std::_Locbase<int>::time
CONST	ENDS
;	COMDAT ?numeric@?$_Locbase@H@std@@2HB
CONST	SEGMENT
?numeric@?$_Locbase@H@std@@2HB DD 08H			; std::_Locbase<int>::numeric
CONST	ENDS
;	COMDAT ?monetary@?$_Locbase@H@std@@2HB
CONST	SEGMENT
?monetary@?$_Locbase@H@std@@2HB DD 04H			; std::_Locbase<int>::monetary
CONST	ENDS
;	COMDAT ?ctype@?$_Locbase@H@std@@2HB
CONST	SEGMENT
?ctype@?$_Locbase@H@std@@2HB DD 02H			; std::_Locbase<int>::ctype
CONST	ENDS
;	COMDAT ?collate@?$_Locbase@H@std@@2HB
CONST	SEGMENT
?collate@?$_Locbase@H@std@@2HB DD 01H			; std::_Locbase<int>::collate
CONST	ENDS
;	COMDAT ?_Rank@?$_Arithmetic_traits@O@std@@2HB
CONST	SEGMENT
?_Rank@?$_Arithmetic_traits@O@std@@2HB DD 09H		; std::_Arithmetic_traits<long double>::_Rank
CONST	ENDS
;	COMDAT ?_Rank@?$_Arithmetic_traits@N@std@@2HB
CONST	SEGMENT
?_Rank@?$_Arithmetic_traits@N@std@@2HB DD 08H		; std::_Arithmetic_traits<double>::_Rank
CONST	ENDS
;	COMDAT ?_Rank@?$_Arithmetic_traits@M@std@@2HB
CONST	SEGMENT
?_Rank@?$_Arithmetic_traits@M@std@@2HB DD 07H		; std::_Arithmetic_traits<float>::_Rank
CONST	ENDS
;	COMDAT ?_Rank@?$_Arithmetic_traits@_K@std@@2HB
CONST	SEGMENT
?_Rank@?$_Arithmetic_traits@_K@std@@2HB DD 06H		; std::_Arithmetic_traits<unsigned __int64>::_Rank
CONST	ENDS
;	COMDAT ?_Rank@?$_Arithmetic_traits@_J@std@@2HB
CONST	SEGMENT
?_Rank@?$_Arithmetic_traits@_J@std@@2HB DD 06H		; std::_Arithmetic_traits<__int64>::_Rank
CONST	ENDS
;	COMDAT ?_Rank@?$_Arithmetic_traits@K@std@@2HB
CONST	SEGMENT
?_Rank@?$_Arithmetic_traits@K@std@@2HB DD 05H		; std::_Arithmetic_traits<unsigned long>::_Rank
CONST	ENDS
;	COMDAT ?_Rank@?$_Arithmetic_traits@J@std@@2HB
CONST	SEGMENT
?_Rank@?$_Arithmetic_traits@J@std@@2HB DD 05H		; std::_Arithmetic_traits<long>::_Rank
CONST	ENDS
;	COMDAT ?_Rank@?$_Arithmetic_traits@I@std@@2HB
CONST	SEGMENT
?_Rank@?$_Arithmetic_traits@I@std@@2HB DD 04H		; std::_Arithmetic_traits<unsigned int>::_Rank
CONST	ENDS
;	COMDAT ?_Rank@?$_Arithmetic_traits@H@std@@2HB
CONST	SEGMENT
?_Rank@?$_Arithmetic_traits@H@std@@2HB DD 04H		; std::_Arithmetic_traits<int>::_Rank
CONST	ENDS
;	COMDAT ?_Rank@?$_Arithmetic_traits@G@std@@2HB
CONST	SEGMENT
?_Rank@?$_Arithmetic_traits@G@std@@2HB DD 03H		; std::_Arithmetic_traits<unsigned short>::_Rank
CONST	ENDS
;	COMDAT ?_Rank@?$_Arithmetic_traits@F@std@@2HB
CONST	SEGMENT
?_Rank@?$_Arithmetic_traits@F@std@@2HB DD 03H		; std::_Arithmetic_traits<short>::_Rank
CONST	ENDS
;	COMDAT ?_Rank@?$_Arithmetic_traits@E@std@@2HB
CONST	SEGMENT
?_Rank@?$_Arithmetic_traits@E@std@@2HB DD 02H		; std::_Arithmetic_traits<unsigned char>::_Rank
CONST	ENDS
;	COMDAT ?_Rank@?$_Arithmetic_traits@C@std@@2HB
CONST	SEGMENT
?_Rank@?$_Arithmetic_traits@C@std@@2HB DD 02H		; std::_Arithmetic_traits<signed char>::_Rank
CONST	ENDS
;	COMDAT ?_Rank@?$_Arithmetic_traits@D@std@@2HB
CONST	SEGMENT
?_Rank@?$_Arithmetic_traits@D@std@@2HB DD 02H		; std::_Arithmetic_traits<char>::_Rank
CONST	ENDS
;	COMDAT ?_Rank@?$_Arithmetic_traits@_N@std@@2HB
CONST	SEGMENT
?_Rank@?$_Arithmetic_traits@_N@std@@2HB DD 01H		; std::_Arithmetic_traits<bool>::_Rank
CONST	ENDS
;	COMDAT ?value@?$integral_constant@I$0A@@tr1@std@@2IB
CONST	SEGMENT
?value@?$integral_constant@I$0A@@tr1@std@@2IB DD 00H	; std::tr1::integral_constant<unsigned int,0>::value
CONST	ENDS
;	COMDAT ?value@?$integral_constant@_N$00@tr1@std@@2_NB
CONST	SEGMENT
?value@?$integral_constant@_N$00@tr1@std@@2_NB DB 01H	; std::tr1::integral_constant<bool,1>::value
CONST	ENDS
;	COMDAT ?value@?$integral_constant@_N$0A@@tr1@std@@2_NB
CONST	SEGMENT
?value@?$integral_constant@_N$0A@@tr1@std@@2_NB DB 00H	; std::tr1::integral_constant<bool,0>::value
CONST	ENDS
PUBLIC	??_C@_0M@PIPLLBK@DataLog?4txt?$AA@		; `string'
PUBLIC	??_C@_09OFIHPMIP@?2?2?4?2COM40?$AA@		; `string'
PUBLIC	??0NeuroSky_Dll_Call@@QAE@XZ			; NeuroSky_Dll_Call::NeuroSky_Dll_Call
EXTRN	__RTC_Shutdown:PROC
EXTRN	__RTC_InitBase:PROC
;	COMDAT ??_C@_0M@PIPLLBK@DataLog?4txt?$AA@
; File c:\users\server\desktop\neurosky\neurosky_dll_call\neurosky_dll_call\neurosky_dll_call.cpp
CONST	SEGMENT
??_C@_0M@PIPLLBK@DataLog?4txt?$AA@ DB 'DataLog.txt', 00H ; `string'
CONST	ENDS
;	COMDAT ??_C@_09OFIHPMIP@?2?2?4?2COM40?$AA@
CONST	SEGMENT
??_C@_09OFIHPMIP@?2?2?4?2COM40?$AA@ DB '\\.\COM40', 00H	; `string'
CONST	ENDS
;	COMDAT rtc$TMZ
rtc$TMZ	SEGMENT
__RTC_Shutdown.rtc$TMZ DD FLAT:__RTC_Shutdown
rtc$TMZ	ENDS
;	COMDAT rtc$IMZ
rtc$IMZ	SEGMENT
__RTC_InitBase.rtc$IMZ DD FLAT:__RTC_InitBase
; Function compile flags: /Odtp /RTCsu /ZI
rtc$IMZ	ENDS
;	COMDAT ??0NeuroSky_Dll_Call@@QAE@XZ
_TEXT	SEGMENT
_this$ = -8						; size = 4
??0NeuroSky_Dll_Call@@QAE@XZ PROC			; NeuroSky_Dll_Call::NeuroSky_Dll_Call, COMDAT
; _this$ = ecx
; Line 16
	push	ebp
	mov	ebp, esp
	sub	esp, 204				; 000000ccH
	push	ebx
	push	esi
	push	edi
	push	ecx
	lea	edi, DWORD PTR [ebp-204]
	mov	ecx, 51					; 00000033H
	mov	eax, -858993460				; ccccccccH
	rep stosd
	pop	ecx
	mov	DWORD PTR _this$[ebp], ecx
; Line 18
	mov	eax, DWORD PTR _this$[ebp]
	mov	DWORD PTR [eax], 0
; Line 23
	mov	eax, DWORD PTR _this$[ebp]
	mov	DWORD PTR [eax+4], 1
; Line 30
	mov	eax, DWORD PTR _this$[ebp]
	mov	DWORD PTR [eax+8], 115200		; 0001c200H
; Line 32
	mov	eax, DWORD PTR _this$[ebp]
	mov	DWORD PTR [eax+12], 0
; Line 34
	mov	eax, DWORD PTR _this$[ebp]
	mov	DWORD PTR [eax+16], 4
; Line 37
	mov	eax, DWORD PTR _this$[ebp]
	mov	DWORD PTR [eax+20], OFFSET ??_C@_09OFIHPMIP@?2?2?4?2COM40?$AA@
; Line 39
	mov	eax, DWORD PTR _this$[ebp]
	mov	DWORD PTR [eax+24], 0
; Line 40
	mov	eax, DWORD PTR _this$[ebp]
	mov	DWORD PTR [eax+28], OFFSET ??_C@_0M@PIPLLBK@DataLog?4txt?$AA@
; Line 41
	mov	eax, DWORD PTR _this$[ebp]
	pop	edi
	pop	esi
	pop	ebx
	mov	esp, ebp
	pop	ebp
	ret	0
??0NeuroSky_Dll_Call@@QAE@XZ ENDP			; NeuroSky_Dll_Call::NeuroSky_Dll_Call
_TEXT	ENDS
PUBLIC	??_C@_07PBILKAFL@Success?$AA@			; `string'
PUBLIC	??_C@_0BF@FDHCMAHG@ERROR?3?5Out?5of?5memory?$AA@ ; `string'
PUBLIC	??_C@_0BM@BBLNFELB@ERROR?3?5Too?5many?5connections?$AA@ ; `string'
PUBLIC	?GetNewConnectionId@NeuroSky_Dll_Call@@QAEPADXZ	; NeuroSky_Dll_Call::GetNewConnectionId
EXTRN	__imp__TG_GetNewConnectionId:PROC
EXTRN	__RTC_CheckEsp:PROC
;	COMDAT ??_C@_07PBILKAFL@Success?$AA@
CONST	SEGMENT
??_C@_07PBILKAFL@Success?$AA@ DB 'Success', 00H		; `string'
CONST	ENDS
;	COMDAT ??_C@_0BF@FDHCMAHG@ERROR?3?5Out?5of?5memory?$AA@
CONST	SEGMENT
??_C@_0BF@FDHCMAHG@ERROR?3?5Out?5of?5memory?$AA@ DB 'ERROR: Out of memory'
	DB	00H						; `string'
CONST	ENDS
;	COMDAT ??_C@_0BM@BBLNFELB@ERROR?3?5Too?5many?5connections?$AA@
CONST	SEGMENT
??_C@_0BM@BBLNFELB@ERROR?3?5Too?5many?5connections?$AA@ DB 'ERROR: Too ma'
	DB	'ny connections', 00H			; `string'
; Function compile flags: /Odtp /RTCsu /ZI
CONST	ENDS
;	COMDAT ?GetNewConnectionId@NeuroSky_Dll_Call@@QAEPADXZ
_TEXT	SEGMENT
_this$ = -8						; size = 4
?GetNewConnectionId@NeuroSky_Dll_Call@@QAEPADXZ PROC	; NeuroSky_Dll_Call::GetNewConnectionId, COMDAT
; _this$ = ecx
; Line 44
	push	ebp
	mov	ebp, esp
	sub	esp, 204				; 000000ccH
	push	ebx
	push	esi
	push	edi
	push	ecx
	lea	edi, DWORD PTR [ebp-204]
	mov	ecx, 51					; 00000033H
	mov	eax, -858993460				; ccccccccH
	rep stosd
	pop	ecx
	mov	DWORD PTR _this$[ebp], ecx
; Line 46
	mov	esi, esp
	call	DWORD PTR __imp__TG_GetNewConnectionId
	cmp	esi, esp
	call	__RTC_CheckEsp
	mov	ecx, DWORD PTR _this$[ebp]
	mov	DWORD PTR [ecx], eax
; Line 48
	mov	eax, DWORD PTR _this$[ebp]
	cmp	DWORD PTR [eax], -1
	jne	SHORT $LN4@GetNewConn
; Line 50
	mov	eax, OFFSET ??_C@_0BM@BBLNFELB@ERROR?3?5Too?5many?5connections?$AA@
	jmp	SHORT $LN5@GetNewConn
	jmp	SHORT $LN5@GetNewConn
$LN4@GetNewConn:
; Line 52
	mov	eax, DWORD PTR _this$[ebp]
	cmp	DWORD PTR [eax], -2			; fffffffeH
	jne	SHORT $LN2@GetNewConn
; Line 54
	mov	eax, OFFSET ??_C@_0BF@FDHCMAHG@ERROR?3?5Out?5of?5memory?$AA@
	jmp	SHORT $LN5@GetNewConn
; Line 56
	jmp	SHORT $LN5@GetNewConn
$LN2@GetNewConn:
; Line 66
	mov	eax, OFFSET ??_C@_07PBILKAFL@Success?$AA@
$LN5@GetNewConn:
; Line 68
	pop	edi
	pop	esi
	pop	ebx
	add	esp, 204				; 000000ccH
	cmp	ebp, esp
	call	__RTC_CheckEsp
	mov	esp, ebp
	pop	ebp
	ret	0
?GetNewConnectionId@NeuroSky_Dll_Call@@QAEPADXZ ENDP	; NeuroSky_Dll_Call::GetNewConnectionId
_TEXT	ENDS
PUBLIC	??_C@_0BJ@FBIOGGOP@ERROR?3?5Invalid?5file?5name?$AA@ ; `string'
PUBLIC	??_C@_0BN@BFELNDOF@ERROR?3?5Invalid?5connection?5ID?$AA@ ; `string'
PUBLIC	?SetDataLog@NeuroSky_Dll_Call@@QAEPADXZ		; NeuroSky_Dll_Call::SetDataLog
EXTRN	__imp__TG_SetDataLog:PROC
;	COMDAT ??_C@_0BJ@FBIOGGOP@ERROR?3?5Invalid?5file?5name?$AA@
CONST	SEGMENT
??_C@_0BJ@FBIOGGOP@ERROR?3?5Invalid?5file?5name?$AA@ DB 'ERROR: Invalid f'
	DB	'ile name', 00H				; `string'
CONST	ENDS
;	COMDAT ??_C@_0BN@BFELNDOF@ERROR?3?5Invalid?5connection?5ID?$AA@
CONST	SEGMENT
??_C@_0BN@BFELNDOF@ERROR?3?5Invalid?5connection?5ID?$AA@ DB 'ERROR: Inval'
	DB	'id connection ID', 00H			; `string'
; Function compile flags: /Odtp /RTCsu /ZI
CONST	ENDS
;	COMDAT ?SetDataLog@NeuroSky_Dll_Call@@QAEPADXZ
_TEXT	SEGMENT
_errCode$ = -20						; size = 4
_this$ = -8						; size = 4
?SetDataLog@NeuroSky_Dll_Call@@QAEPADXZ PROC		; NeuroSky_Dll_Call::SetDataLog, COMDAT
; _this$ = ecx
; Line 71
	push	ebp
	mov	ebp, esp
	sub	esp, 216				; 000000d8H
	push	ebx
	push	esi
	push	edi
	push	ecx
	lea	edi, DWORD PTR [ebp-216]
	mov	ecx, 54					; 00000036H
	mov	eax, -858993460				; ccccccccH
	rep stosd
	pop	ecx
	mov	DWORD PTR _this$[ebp], ecx
; Line 72
	mov	esi, esp
	mov	eax, DWORD PTR _this$[ebp]
	mov	ecx, DWORD PTR [eax+28]
	push	ecx
	mov	edx, DWORD PTR _this$[ebp]
	mov	eax, DWORD PTR [edx]
	push	eax
	call	DWORD PTR __imp__TG_SetDataLog
	add	esp, 8
	cmp	esi, esp
	call	__RTC_CheckEsp
	mov	DWORD PTR _errCode$[ebp], eax
; Line 73
	cmp	DWORD PTR _errCode$[ebp], -1
	jne	SHORT $LN4@SetDataLog
; Line 75
	mov	eax, OFFSET ??_C@_0BN@BFELNDOF@ERROR?3?5Invalid?5connection?5ID?$AA@
	jmp	SHORT $LN5@SetDataLog
	jmp	SHORT $LN5@SetDataLog
$LN4@SetDataLog:
; Line 77
	cmp	DWORD PTR _errCode$[ebp], -2		; fffffffeH
	jne	SHORT $LN2@SetDataLog
; Line 79
	mov	eax, OFFSET ??_C@_0BJ@FBIOGGOP@ERROR?3?5Invalid?5file?5name?$AA@
	jmp	SHORT $LN5@SetDataLog
; Line 81
	jmp	SHORT $LN5@SetDataLog
$LN2@SetDataLog:
; Line 83
	mov	eax, OFFSET ??_C@_07PBILKAFL@Success?$AA@
$LN5@SetDataLog:
; Line 85
	pop	edi
	pop	esi
	pop	ebx
	add	esp, 216				; 000000d8H
	cmp	ebp, esp
	call	__RTC_CheckEsp
	mov	esp, ebp
	pop	ebp
	ret	0
?SetDataLog@NeuroSky_Dll_Call@@QAEPADXZ ENDP		; NeuroSky_Dll_Call::SetDataLog
_TEXT	ENDS
PUBLIC	??_C@_0CB@MMLJOKKA@ERROR?3?5Stream?5log?5not?5opened?5yet@ ; `string'
PUBLIC	?WriteDataLog@NeuroSky_Dll_Call@@QAEPADXZ	; NeuroSky_Dll_Call::WriteDataLog
EXTRN	__imp__TG_WriteDataLog:PROC
;	COMDAT ??_C@_0CB@MMLJOKKA@ERROR?3?5Stream?5log?5not?5opened?5yet@
CONST	SEGMENT
??_C@_0CB@MMLJOKKA@ERROR?3?5Stream?5log?5not?5opened?5yet@ DB 'ERROR: Str'
	DB	'eam log not opened yet', 00H		; `string'
; Function compile flags: /Odtp /RTCsu /ZI
CONST	ENDS
;	COMDAT ?WriteDataLog@NeuroSky_Dll_Call@@QAEPADXZ
_TEXT	SEGMENT
_errCode$ = -20						; size = 4
_this$ = -8						; size = 4
?WriteDataLog@NeuroSky_Dll_Call@@QAEPADXZ PROC		; NeuroSky_Dll_Call::WriteDataLog, COMDAT
; _this$ = ecx
; Line 88
	push	ebp
	mov	ebp, esp
	sub	esp, 216				; 000000d8H
	push	ebx
	push	esi
	push	edi
	push	ecx
	lea	edi, DWORD PTR [ebp-216]
	mov	ecx, 54					; 00000036H
	mov	eax, -858993460				; ccccccccH
	rep stosd
	pop	ecx
	mov	DWORD PTR _this$[ebp], ecx
; Line 89
	mov	esi, esp
	mov	eax, DWORD PTR _this$[ebp]
	mov	ecx, DWORD PTR [eax+24]
	push	ecx
	mov	edx, DWORD PTR _this$[ebp]
	mov	eax, DWORD PTR [edx+4]
	push	eax
	mov	ecx, DWORD PTR _this$[ebp]
	mov	edx, DWORD PTR [ecx]
	push	edx
	call	DWORD PTR __imp__TG_WriteDataLog
	add	esp, 12					; 0000000cH
	cmp	esi, esp
	call	__RTC_CheckEsp
	mov	DWORD PTR _errCode$[ebp], eax
; Line 91
	cmp	DWORD PTR _errCode$[ebp], -1
	jne	SHORT $LN4@WriteDataL
; Line 93
	mov	eax, OFFSET ??_C@_0BN@BFELNDOF@ERROR?3?5Invalid?5connection?5ID?$AA@
	jmp	SHORT $LN5@WriteDataL
	jmp	SHORT $LN5@WriteDataL
$LN4@WriteDataL:
; Line 95
	cmp	DWORD PTR _errCode$[ebp], -2		; fffffffeH
	jne	SHORT $LN2@WriteDataL
; Line 97
	mov	eax, OFFSET ??_C@_0CB@MMLJOKKA@ERROR?3?5Stream?5log?5not?5opened?5yet@
	jmp	SHORT $LN5@WriteDataL
; Line 99
	jmp	SHORT $LN5@WriteDataL
$LN2@WriteDataL:
; Line 101
	mov	eax, OFFSET ??_C@_07PBILKAFL@Success?$AA@
$LN5@WriteDataL:
; Line 103
	pop	edi
	pop	esi
	pop	ebx
	add	esp, 216				; 000000d8H
	cmp	ebp, esp
	call	__RTC_CheckEsp
	mov	esp, ebp
	pop	ebp
	ret	0
?WriteDataLog@NeuroSky_Dll_Call@@QAEPADXZ ENDP		; NeuroSky_Dll_Call::WriteDataLog
_TEXT	ENDS
PUBLIC	?EnableBlinkDetection@NeuroSky_Dll_Call@@QAEPADXZ ; NeuroSky_Dll_Call::EnableBlinkDetection
EXTRN	__imp__TG_EnableBlinkDetection:PROC
; Function compile flags: /Odtp /RTCsu /ZI
;	COMDAT ?EnableBlinkDetection@NeuroSky_Dll_Call@@QAEPADXZ
_TEXT	SEGMENT
_errCode$ = -20						; size = 4
_this$ = -8						; size = 4
?EnableBlinkDetection@NeuroSky_Dll_Call@@QAEPADXZ PROC	; NeuroSky_Dll_Call::EnableBlinkDetection, COMDAT
; _this$ = ecx
; Line 107
	push	ebp
	mov	ebp, esp
	sub	esp, 216				; 000000d8H
	push	ebx
	push	esi
	push	edi
	push	ecx
	lea	edi, DWORD PTR [ebp-216]
	mov	ecx, 54					; 00000036H
	mov	eax, -858993460				; ccccccccH
	rep stosd
	pop	ecx
	mov	DWORD PTR _this$[ebp], ecx
; Line 108
	mov	esi, esp
	push	1
	mov	eax, DWORD PTR _this$[ebp]
	mov	ecx, DWORD PTR [eax]
	push	ecx
	call	DWORD PTR __imp__TG_EnableBlinkDetection
	add	esp, 8
	cmp	esi, esp
	call	__RTC_CheckEsp
	mov	DWORD PTR _errCode$[ebp], eax
; Line 110
	cmp	DWORD PTR _errCode$[ebp], -1
	jne	SHORT $LN2@EnableBlin
; Line 112
	mov	eax, OFFSET ??_C@_0BN@BFELNDOF@ERROR?3?5Invalid?5connection?5ID?$AA@
	jmp	SHORT $LN3@EnableBlin
; Line 114
	jmp	SHORT $LN3@EnableBlin
$LN2@EnableBlin:
; Line 116
	mov	eax, OFFSET ??_C@_07PBILKAFL@Success?$AA@
$LN3@EnableBlin:
; Line 118
	pop	edi
	pop	esi
	pop	ebx
	add	esp, 216				; 000000d8H
	cmp	ebp, esp
	call	__RTC_CheckEsp
	mov	esp, ebp
	pop	ebp
	ret	0
?EnableBlinkDetection@NeuroSky_Dll_Call@@QAEPADXZ ENDP	; NeuroSky_Dll_Call::EnableBlinkDetection
_TEXT	ENDS
PUBLIC	??_C@_0BE@NDPGNPKG@Invalid?5data?5format?$AA@	; `string'
PUBLIC	??_C@_0BB@CCFPGCND@Invalid?5Baudrate?$AA@	; `string'
PUBLIC	??_C@_0CB@IDGKBHAG@ERROR?3?5COM?5Port?5cannot?5be?5opened@ ; `string'
PUBLIC	?Connect@NeuroSky_Dll_Call@@QAEPADXZ		; NeuroSky_Dll_Call::Connect
EXTRN	__imp__TG_Connect:PROC
;	COMDAT ??_C@_0BE@NDPGNPKG@Invalid?5data?5format?$AA@
CONST	SEGMENT
??_C@_0BE@NDPGNPKG@Invalid?5data?5format?$AA@ DB 'Invalid data format', 00H ; `string'
CONST	ENDS
;	COMDAT ??_C@_0BB@CCFPGCND@Invalid?5Baudrate?$AA@
CONST	SEGMENT
??_C@_0BB@CCFPGCND@Invalid?5Baudrate?$AA@ DB 'Invalid Baudrate', 00H ; `string'
CONST	ENDS
;	COMDAT ??_C@_0CB@IDGKBHAG@ERROR?3?5COM?5Port?5cannot?5be?5opened@
CONST	SEGMENT
??_C@_0CB@IDGKBHAG@ERROR?3?5COM?5Port?5cannot?5be?5opened@ DB 'ERROR: COM'
	DB	' Port cannot be opened', 00H		; `string'
; Function compile flags: /Odtp /RTCsu /ZI
CONST	ENDS
;	COMDAT ?Connect@NeuroSky_Dll_Call@@QAEPADXZ
_TEXT	SEGMENT
_errCode$ = -20						; size = 4
_this$ = -8						; size = 4
?Connect@NeuroSky_Dll_Call@@QAEPADXZ PROC		; NeuroSky_Dll_Call::Connect, COMDAT
; _this$ = ecx
; Line 121
	push	ebp
	mov	ebp, esp
	sub	esp, 216				; 000000d8H
	push	ebx
	push	esi
	push	edi
	push	ecx
	lea	edi, DWORD PTR [ebp-216]
	mov	ecx, 54					; 00000036H
	mov	eax, -858993460				; ccccccccH
	rep stosd
	pop	ecx
	mov	DWORD PTR _this$[ebp], ecx
; Line 123
	mov	esi, esp
	mov	eax, DWORD PTR _this$[ebp]
	mov	ecx, DWORD PTR [eax+12]
	push	ecx
	mov	edx, DWORD PTR _this$[ebp]
	mov	eax, DWORD PTR [edx+8]
	push	eax
	mov	ecx, DWORD PTR _this$[ebp]
	mov	edx, DWORD PTR [ecx+20]
	push	edx
	mov	eax, DWORD PTR _this$[ebp]
	mov	ecx, DWORD PTR [eax]
	push	ecx
	call	DWORD PTR __imp__TG_Connect
	add	esp, 16					; 00000010H
	cmp	esi, esp
	call	__RTC_CheckEsp
	mov	DWORD PTR _errCode$[ebp], eax
; Line 125
	cmp	DWORD PTR _errCode$[ebp], -1
	jne	SHORT $LN8@Connect
; Line 127
	mov	eax, OFFSET ??_C@_0BN@BFELNDOF@ERROR?3?5Invalid?5connection?5ID?$AA@
	jmp	SHORT $LN9@Connect
	jmp	SHORT $LN9@Connect
$LN8@Connect:
; Line 129
	cmp	DWORD PTR _errCode$[ebp], -2		; fffffffeH
	jne	SHORT $LN6@Connect
; Line 131
	mov	eax, OFFSET ??_C@_0CB@IDGKBHAG@ERROR?3?5COM?5Port?5cannot?5be?5opened@
	jmp	SHORT $LN9@Connect
	jmp	SHORT $LN9@Connect
$LN6@Connect:
; Line 133
	cmp	DWORD PTR _errCode$[ebp], -3		; fffffffdH
	jne	SHORT $LN4@Connect
; Line 135
	mov	eax, OFFSET ??_C@_0BB@CCFPGCND@Invalid?5Baudrate?$AA@
	jmp	SHORT $LN9@Connect
	jmp	SHORT $LN9@Connect
$LN4@Connect:
; Line 137
	cmp	DWORD PTR _errCode$[ebp], -4		; fffffffcH
	jne	SHORT $LN2@Connect
; Line 139
	mov	eax, OFFSET ??_C@_0BE@NDPGNPKG@Invalid?5data?5format?$AA@
	jmp	SHORT $LN9@Connect
; Line 141
	jmp	SHORT $LN9@Connect
$LN2@Connect:
; Line 143
	mov	eax, OFFSET ??_C@_07PBILKAFL@Success?$AA@
$LN9@Connect:
; Line 146
	pop	edi
	pop	esi
	pop	ebx
	add	esp, 216				; 000000d8H
	cmp	ebp, esp
	call	__RTC_CheckEsp
	mov	esp, ebp
	pop	ebp
	ret	0
?Connect@NeuroSky_Dll_Call@@QAEPADXZ ENDP		; NeuroSky_Dll_Call::Connect
_TEXT	ENDS
PUBLIC	?Disconnect@NeuroSky_Dll_Call@@QAEXXZ		; NeuroSky_Dll_Call::Disconnect
EXTRN	__imp__TG_Disconnect:PROC
; Function compile flags: /Odtp /RTCsu /ZI
;	COMDAT ?Disconnect@NeuroSky_Dll_Call@@QAEXXZ
_TEXT	SEGMENT
_this$ = -8						; size = 4
?Disconnect@NeuroSky_Dll_Call@@QAEXXZ PROC		; NeuroSky_Dll_Call::Disconnect, COMDAT
; _this$ = ecx
; Line 149
	push	ebp
	mov	ebp, esp
	sub	esp, 204				; 000000ccH
	push	ebx
	push	esi
	push	edi
	push	ecx
	lea	edi, DWORD PTR [ebp-204]
	mov	ecx, 51					; 00000033H
	mov	eax, -858993460				; ccccccccH
	rep stosd
	pop	ecx
	mov	DWORD PTR _this$[ebp], ecx
; Line 150
	mov	esi, esp
	mov	eax, DWORD PTR _this$[ebp]
	mov	ecx, DWORD PTR [eax]
	push	ecx
	call	DWORD PTR __imp__TG_Disconnect
	add	esp, 4
	cmp	esi, esp
	call	__RTC_CheckEsp
; Line 151
	pop	edi
	pop	esi
	pop	ebx
	add	esp, 204				; 000000ccH
	cmp	ebp, esp
	call	__RTC_CheckEsp
	mov	esp, ebp
	pop	ebp
	ret	0
?Disconnect@NeuroSky_Dll_Call@@QAEXXZ ENDP		; NeuroSky_Dll_Call::Disconnect
_TEXT	ENDS
PUBLIC	__real@c16312d000000000
PUBLIC	?GetValue@NeuroSky_Dll_Call@@QAENXZ		; NeuroSky_Dll_Call::GetValue
EXTRN	__imp__TG_GetValue:PROC
EXTRN	__imp__TG_GetValueStatus:PROC
EXTRN	__imp__TG_ReadPackets:PROC
EXTRN	__fltused:DWORD
;	COMDAT __real@c16312d000000000
CONST	SEGMENT
__real@c16312d000000000 DQ 0c16312d000000000r	; -1e+007
; Function compile flags: /Odtp /RTCsu /ZI
CONST	ENDS
;	COMDAT ?GetValue@NeuroSky_Dll_Call@@QAENXZ
_TEXT	SEGMENT
_raw$49875 = -44					; size = 4
_PacketRead$ = -32					; size = 4
_numPacket$ = -20					; size = 4
_this$ = -8						; size = 4
?GetValue@NeuroSky_Dll_Call@@QAENXZ PROC		; NeuroSky_Dll_Call::GetValue, COMDAT
; _this$ = ecx
; Line 154
	push	ebp
	mov	ebp, esp
	sub	esp, 240				; 000000f0H
	push	ebx
	push	esi
	push	edi
	push	ecx
	lea	edi, DWORD PTR [ebp-240]
	mov	ecx, 60					; 0000003cH
	mov	eax, -858993460				; ccccccccH
	rep stosd
	pop	ecx
	mov	DWORD PTR _this$[ebp], ecx
; Line 156
	mov	DWORD PTR _numPacket$[ebp], 1
; Line 157
	mov	esi, esp
	mov	eax, DWORD PTR _numPacket$[ebp]
	push	eax
	mov	ecx, DWORD PTR _this$[ebp]
	mov	edx, DWORD PTR [ecx]
	push	edx
	call	DWORD PTR __imp__TG_ReadPackets
	add	esp, 8
	cmp	esi, esp
	call	__RTC_CheckEsp
	mov	DWORD PTR _PacketRead$[ebp], eax
; Line 160
	cmp	DWORD PTR _numPacket$[ebp], -1
	jne	SHORT $LN8@GetValue
; Line 162
	fld	QWORD PTR __real@c16312d000000000
	jmp	SHORT $LN1@GetValue
	jmp	SHORT $LN1@GetValue
$LN8@GetValue:
; Line 165
	cmp	DWORD PTR _numPacket$[ebp], -2		; fffffffeH
	jne	SHORT $LN6@GetValue
; Line 167
	fld	QWORD PTR __real@c16312d000000000
	jmp	SHORT $LN1@GetValue
	jmp	SHORT $LN1@GetValue
$LN6@GetValue:
; Line 170
	cmp	DWORD PTR _numPacket$[ebp], -3		; fffffffdH
	jne	SHORT $LN4@GetValue
; Line 172
	fld	QWORD PTR __real@c16312d000000000
	jmp	SHORT $LN1@GetValue
; Line 175
	jmp	SHORT $LN1@GetValue
$LN4@GetValue:
; Line 178
	mov	esi, esp
	mov	eax, DWORD PTR _this$[ebp]
	mov	ecx, DWORD PTR [eax+16]
	push	ecx
	mov	edx, DWORD PTR _this$[ebp]
	mov	eax, DWORD PTR [edx]
	push	eax
	call	DWORD PTR __imp__TG_GetValueStatus
	add	esp, 8
	cmp	esi, esp
	call	__RTC_CheckEsp
	test	eax, eax
	je	SHORT $LN2@GetValue
; Line 180
	mov	esi, esp
	mov	eax, DWORD PTR _this$[ebp]
	mov	ecx, DWORD PTR [eax+16]
	push	ecx
	mov	edx, DWORD PTR _this$[ebp]
	mov	eax, DWORD PTR [edx]
	push	eax
	call	DWORD PTR __imp__TG_GetValue
	add	esp, 8
	cmp	esi, esp
	call	__RTC_CheckEsp
	fstp	DWORD PTR _raw$49875[ebp]
; Line 191
	fld	DWORD PTR _raw$49875[ebp]
	jmp	SHORT $LN1@GetValue
; Line 193
	jmp	SHORT $LN1@GetValue
$LN2@GetValue:
; Line 195
	fld	QWORD PTR __real@c16312d000000000
$LN1@GetValue:
; Line 199
	pop	edi
	pop	esi
	pop	ebx
	add	esp, 240				; 000000f0H
	cmp	ebp, esp
	call	__RTC_CheckEsp
	mov	esp, ebp
	pop	ebp
	ret	0
?GetValue@NeuroSky_Dll_Call@@QAENXZ ENDP		; NeuroSky_Dll_Call::GetValue
_TEXT	ENDS
PUBLIC	?FreeConnection@NeuroSky_Dll_Call@@QAEXXZ	; NeuroSky_Dll_Call::FreeConnection
EXTRN	__imp__TG_FreeConnection:PROC
; Function compile flags: /Odtp /RTCsu /ZI
;	COMDAT ?FreeConnection@NeuroSky_Dll_Call@@QAEXXZ
_TEXT	SEGMENT
_this$ = -8						; size = 4
?FreeConnection@NeuroSky_Dll_Call@@QAEXXZ PROC		; NeuroSky_Dll_Call::FreeConnection, COMDAT
; _this$ = ecx
; Line 202
	push	ebp
	mov	ebp, esp
	sub	esp, 204				; 000000ccH
	push	ebx
	push	esi
	push	edi
	push	ecx
	lea	edi, DWORD PTR [ebp-204]
	mov	ecx, 51					; 00000033H
	mov	eax, -858993460				; ccccccccH
	rep stosd
	pop	ecx
	mov	DWORD PTR _this$[ebp], ecx
; Line 203
	mov	esi, esp
	mov	eax, DWORD PTR _this$[ebp]
	mov	ecx, DWORD PTR [eax]
	push	ecx
	call	DWORD PTR __imp__TG_FreeConnection
	add	esp, 4
	cmp	esi, esp
	call	__RTC_CheckEsp
; Line 204
	pop	edi
	pop	esi
	pop	ebx
	add	esp, 204				; 000000ccH
	cmp	ebp, esp
	call	__RTC_CheckEsp
	mov	esp, ebp
	pop	ebp
	ret	0
?FreeConnection@NeuroSky_Dll_Call@@QAEXXZ ENDP		; NeuroSky_Dll_Call::FreeConnection
_TEXT	ENDS
END
